; Function Attrs: null_pointer_is_valid sspstrong uwtable
define noundef ptr @guid_to_str(ptr noundef %0, ptr noundef %1) local_unnamed_addr #0 {
  %3 = tail call noalias dereferenceable_or_null(37) ptr @wmem_alloc(ptr noundef %0, i64 noundef 37) #10
  %4 = load i32, ptr %1, align 4
  %5 = tail call ptr @dword_to_hex(ptr noundef %3, i32 noundef %4)
  %6 = getelementptr i8, ptr %5, i64 1
  store i8 45, ptr %5, align 1
  %7 = getelementptr inbounds nuw i8, ptr %1, i64 4
  %8 = load i16, ptr %7, align 4
  %9 = tail call ptr @word_to_hex(ptr noundef %6, i16 noundef zeroext %8)
  %10 = getelementptr i8, ptr %9, i64 1
  store i8 45, ptr %9, align 1
  %11 = getelementptr inbounds nuw i8, ptr %1, i64 6
  %12 = load i16, ptr %11, align 2
  %13 = tail call ptr @word_to_hex(ptr noundef %10, i16 noundef zeroext %12)
  %14 = getelementptr i8, ptr %13, i64 1
  store i8 45, ptr %13, align 1
  %15 = getelementptr inbounds nuw i8, ptr %1, i64 8
  %16 = tail call ptr @bytes_to_hexstr(ptr noundef %14, ptr noundef nonnull %15, i64 noundef 2)
  %17 = getelementptr i8, ptr %16, i64 1
  store i8 45, ptr %16, align 1
  %18 = getelementptr i8, ptr %1, i64 10
  %19 = tail call ptr @bytes_to_hexstr(ptr noundef %17, ptr noundef %18, i64 noundef 6)
  store i8 0, ptr %19, align 1
  ret ptr %3
}